target datalayout = "e-m:e-p270:32:32-p271:32:32-p272:64:64-i64:64-i128:128-f80:128-n8:16:32:64-S128"
target triple = "x86_64-pc-linux-gnu"

%struct.redisServer = type { i32, i64, ptr, ptr, ptr, i32, i32, i32, i32, i32, ptr, ptr, ptr, ptr, ptr, i32, i32, i32, i32, i64, i32, i32, i32, i32, ptr, i32, i32, [41 x i8], i32, i64, i32, i32, i32, ptr, ptr, i32, i32, i64, ptr, ptr, ptr, ptr, [2 x i32], i32, i32, i32, i32, i32, i32, [16 x ptr], i32, ptr, ptr, i32, [8 x %struct.connListener], i32, %struct.connListener, ptr, ptr, ptr, ptr, ptr, ptr, ptr, ptr, ptr, ptr, i32, ptr, i32, ptr, [3 x %struct.pause_event], [256 x i8], ptr, i64, i32, i32, [128 x i32], i32, i32, i64, i32, i32, i32, i32, i32, i64, i64, i64, i64, i64, i64, i64, i64, i64, i64, double, i64, i64, i64, i64, i64, i64, i64, i64, i64, i64, i64, i64, i64, i64, i64, i64, i64, i64, i64, i64, i64, double, i64, i64, i64, i64, i64, ptr, i64, i64, i64, %struct.malloc_stats, i64, i64, i64, i64, i64, i64, i64, i64, i64, i64, i64, i64, double, [4 x i64], i64, i64, i64, i64, [128 x i64], [128 x i64], i64, i64, [7 x %struct.anon], i64, i64, i64, i64, i64, i64, [4 x %struct.durationStats], i32, i32, i32, i32, i32, i32, i32, i32, i32, i32, i32, i32, i64, i32, i32, i32, i32, i64, i64, i32, i32, i32, i32, i32, ptr, [3 x %struct.clientBufferLimitsConfig], i32, i32, i32, ptr, i32, i32, i32, i32, i32, i32, ptr, ptr, i32, i32, i64, i64, i64, i64, i64, i32, i32, ptr, i32, i32, i64, i64, i64, i64, i64, i32, i32, i64, i32, i32, i32, i32, i32, i32, i32, i32, ptr, i32, i64, i64, i64, i64, i32, ptr, i32, ptr, i32, i32, i32, i64, i64, i64, i64, i32, i32, i32, i32, i32, i32, ptr, i32, i32, ptr, i32, i32, i32, [2 x i32], i32, %struct.redisOpArray, i32, ptr, i32, ptr, i32, i32, i32, i32, i32, i32, i32, [41 x i8], [41 x i8], i64, i64, i64, i64, i32, i32, ptr, i64, i64, %struct.replDataBuf, i64, i64, i32, i32, i32, i32, i32, i32, i32, i32, i32, i64, ptr, i64, ptr, ptr, ptr, i32, i32, ptr, ptr, i32, i32, i32, i64, i64, i64, i64, ptr, ptr, i32, ptr, i64, i32, i32, i32, i64, i32, i32, i32, i32, ptr, i32, i32, [41 x i8], i64, i32, ptr, i32, i32, i64, i64, i32, i32, i32, i32, i32, i64, [3 x i32], i32, i32, i32, [10 x i32], ptr, ptr, i32, i64, ptr, ptr, i32, i32, i32, i32, i64, i64, i64, i64, i64, i64, i64, i64, i64, i64, i32, i32, i64, i64, i32, i64, i64, i64, i64, i64, ptr, ptr, i32, ptr, i32, i32, i32, i32, i64, i64, ptr, ptr, i32, i32, i32, i32, i32, ptr, ptr, ptr, i32, i32, i32, i32, i32, i32, i32, i64, i32, i32, i64, i32, i32, i32, i32, i32, i32, i32, i64, ptr, ptr, i64, ptr, i32, %struct.aclInfo, i32, i64, i32, i32, i32, %struct.redisTLSContextConfig, ptr, ptr, ptr, ptr, ptr, i64, i32, ptr, i32, i32, i32, i64, i32, ptr }
%struct.connListener = type { [16 x i32], i32, ptr, i32, i32, ptr, ptr }
%struct.pause_event = type { i32, i64 }
%struct.malloc_stats = type { i64, i64, i64, i64, i64, i64, i64, i64, i64, i64, i64 }
%struct.anon = type { i64, i64, [16 x i64], i32 }
%struct.durationStats = type { i64, i64, i64 }
%struct.clientBufferLimitsConfig = type { i64, i64, i64 }
%struct.redisOpArray = type { ptr, i32, i32 }
%struct.replDataBuf = type { ptr, i64, i64, i64, i64 }
%struct.aclInfo = type { i64, i64, i64, i64 }
%struct.redisTLSContextConfig = type { ptr, ptr, ptr, ptr, ptr, ptr, ptr, ptr, ptr, ptr, ptr, ptr, i32, i32, i32, i32 }
%struct.sharedObjectsStruct = type { ptr, ptr, ptr, ptr, ptr, ptr, ptr, ptr, [4 x ptr], [4 x ptr], [4 x ptr], [4 x ptr], ptr, ptr, ptr, ptr, ptr, ptr, ptr, ptr, ptr, ptr, ptr, ptr, ptr, ptr, ptr, ptr, ptr, ptr, ptr, ptr, ptr, ptr, ptr, ptr, ptr, ptr, ptr, ptr, ptr, ptr, ptr, ptr, ptr, ptr, ptr, ptr, ptr, ptr, ptr, ptr, ptr, ptr, ptr, ptr, ptr, ptr, ptr, ptr, ptr, ptr, ptr, ptr, ptr, ptr, ptr, ptr, ptr, ptr, ptr, ptr, ptr, ptr, ptr, ptr, ptr, ptr, ptr, ptr, ptr, ptr, ptr, ptr, ptr, ptr, ptr, ptr, [10 x ptr], [10000 x ptr], [32 x ptr], [32 x ptr], [32 x ptr], [32 x ptr], ptr, ptr }
%struct.client = type { i64, i64, ptr, i8, i8, i8, i8, i32, ptr, ptr, ptr, ptr, ptr, i64, i64, i32, ptr, i32, i32, ptr, i64, ptr, ptr, ptr, ptr, ptr, i32, i32, i64, ptr, i64, ptr, i64, i64, i64, i32, ptr, i64, i64, i32, i32, i32, i32, i64, i64, ptr, i64, i64, i64, i64, i64, i64, i64, i64, [41 x i8], i32, ptr, i32, i32, i64, %struct.multiState, %struct.blockingState, i64, ptr, ptr, ptr, ptr, ptr, ptr, ptr, ptr, ptr, ptr, ptr, ptr, ptr, ptr, i64, ptr, i64, i32, ptr, ptr, ptr, i64, %struct.listNode, i64, i64, i32, i64, ptr }
%struct.multiState = type { ptr, i32, i32, i32, i64, i32 }
%struct.blockingState = type { i32, i64, i32, ptr, i32, i32, i64, ptr, ptr, i64 }
%struct.listNode = type { ptr, ptr, ptr }
%struct.rdbSaveInfo = type { i32, i32, [41 x i8], i64 }
%struct.redisDb = type { ptr, ptr, ptr, ptr, ptr, ptr, ptr, i32, i64, i64, ptr }

@server = external global %struct.redisServer, align 8
@shared = external global %struct.sharedObjectsStruct, align 8
@.str.157 = private unnamed_addr constant [36 x i8] c"Background save already in progress\00", align 1
@__const.rdbPopulateSaveInfo.rsi_init = private unnamed_addr constant { i32, i32, [41 x i8], [7 x i8], i64 } { i32 -1, i32 0, [41 x i8] c"0000000000000000000000000000000000000000\00", [7 x i8] zeroinitializer, i64 -1 }, align 8

; Function Attrs: nounwind uwtable
define dso_local ptr @rdbPopulateSaveInfo(ptr noundef %0) #0 {
  %2 = alloca ptr, align 8
  %3 = alloca ptr, align 8
  %4 = alloca %struct.rdbSaveInfo, align 8
  %5 = alloca i32, align 4
  store ptr %0, ptr %3, align 8, !tbaa !179
  call void @llvm.lifetime.start.p0(i64 64, ptr %4) #15
  call void @llvm.memcpy.p0.p0.i64(ptr align 8 %4, ptr align 8 @__const.rdbPopulateSaveInfo.rsi_init, i64 64, i1 false)
  %6 = load ptr, ptr %3, align 8, !tbaa !179
  call void @llvm.memcpy.p0.p0.i64(ptr align 8 %6, ptr align 8 %4, i64 64, i1 false), !tbaa.struct !336
  %7 = load ptr, ptr getelementptr inbounds nuw (%struct.redisServer, ptr @server, i32 0, i32 297), align 8, !tbaa !282
  %8 = icmp ne ptr %7, null
  br i1 %8, label %23, label %9

9:                                                ; preds = %1
  %10 = load ptr, ptr getelementptr inbounds nuw (%struct.redisServer, ptr @server, i32 0, i32 277), align 8, !tbaa !295
  %11 = icmp ne ptr %10, null
  br i1 %11, label %12, label %23

12:                                               ; preds = %9
  %13 = load i32, ptr getelementptr inbounds nuw (%struct.redisServer, ptr @server, i32 0, i32 275), align 8, !tbaa !337
  %14 = icmp eq i32 %13, -1
  br i1 %14, label %15, label %16

15:                                               ; preds = %12
  br label %18

16:                                               ; preds = %12
  %17 = load i32, ptr getelementptr inbounds nuw (%struct.redisServer, ptr @server, i32 0, i32 275), align 8, !tbaa !337
  br label %18

18:                                               ; preds = %16, %15
  %19 = phi i32 [ 0, %15 ], [ %17, %16 ]
  %20 = load ptr, ptr %3, align 8, !tbaa !179
  %21 = getelementptr inbounds nuw %struct.rdbSaveInfo, ptr %20, i32 0, i32 0
  store i32 %19, ptr %21, align 8, !tbaa !181
  %22 = load ptr, ptr %3, align 8, !tbaa !179
  store ptr %22, ptr %2, align 8
  store i32 1, ptr %5, align 4
  br label %48

23:                                               ; preds = %9, %1
  %24 = load ptr, ptr getelementptr inbounds nuw (%struct.redisServer, ptr @server, i32 0, i32 300), align 8, !tbaa !338
  %25 = icmp ne ptr %24, null
  br i1 %25, label %26, label %35

26:                                               ; preds = %23
  %27 = load ptr, ptr getelementptr inbounds nuw (%struct.redisServer, ptr @server, i32 0, i32 300), align 8, !tbaa !338
  %28 = getelementptr inbounds nuw %struct.client, ptr %27, i32 0, i32 8
  %29 = load ptr, ptr %28, align 8, !tbaa !339
  %30 = getelementptr inbounds nuw %struct.redisDb, ptr %29, i32 0, i32 7
  %31 = load i32, ptr %30, align 8, !tbaa !294
  %32 = load ptr, ptr %3, align 8, !tbaa !179
  %33 = getelementptr inbounds nuw %struct.rdbSaveInfo, ptr %32, i32 0, i32 0
  store i32 %31, ptr %33, align 8, !tbaa !181
  %34 = load ptr, ptr %3, align 8, !tbaa !179
  store ptr %34, ptr %2, align 8
  store i32 1, ptr %5, align 4
  br label %48

35:                                               ; preds = %23
  %36 = load ptr, ptr getelementptr inbounds nuw (%struct.redisServer, ptr @server, i32 0, i32 301), align 8, !tbaa !340
  %37 = icmp ne ptr %36, null
  br i1 %37, label %38, label %47

38:                                               ; preds = %35
  %39 = load ptr, ptr getelementptr inbounds nuw (%struct.redisServer, ptr @server, i32 0, i32 301), align 8, !tbaa !340
  %40 = getelementptr inbounds nuw %struct.client, ptr %39, i32 0, i32 8
  %41 = load ptr, ptr %40, align 8, !tbaa !339
  %42 = getelementptr inbounds nuw %struct.redisDb, ptr %41, i32 0, i32 7
  %43 = load i32, ptr %42, align 8, !tbaa !294
  %44 = load ptr, ptr %3, align 8, !tbaa !179
  %45 = getelementptr inbounds nuw %struct.rdbSaveInfo, ptr %44, i32 0, i32 0
  store i32 %43, ptr %45, align 8, !tbaa !181
  %46 = load ptr, ptr %3, align 8, !tbaa !179
  store ptr %46, ptr %2, align 8
  store i32 1, ptr %5, align 4
  br label %48

47:                                               ; preds = %35
  store ptr null, ptr %2, align 8
  store i32 1, ptr %5, align 4
  br label %48

48:                                               ; preds = %47, %38, %26, %18
  call void @llvm.lifetime.end.p0(i64 64, ptr %4) #15
  %49 = load ptr, ptr %2, align 8
  ret ptr %49
}

; Function Attrs: nounwind uwtable
define dso_local void @saveCommand(ptr noundef %0) #0 {
  %2 = alloca ptr, align 8
  %3 = alloca %struct.rdbSaveInfo, align 8
  %4 = alloca ptr, align 8
  store ptr %0, ptr %2, align 8, !tbaa !323
  %5 = load i32, ptr getelementptr inbounds nuw (%struct.redisServer, ptr @server, i32 0, i32 44), align 4, !tbaa !332
  %6 = icmp eq i32 %5, 1
  br i1 %6, label %7, label %9

7:                                                ; preds = %1
  %8 = load ptr, ptr %2, align 8, !tbaa !323
  call void @addReplyError(ptr noundef %8, ptr noundef @.str.157)
  br label %24

9:                                                ; preds = %1
  %10 = load i64, ptr getelementptr inbounds nuw (%struct.redisServer, ptr @server, i32 0, i32 116), align 8, !tbaa !214
  %11 = add nsw i64 %10, 1
  store i64 %11, ptr getelementptr inbounds nuw (%struct.redisServer, ptr @server, i32 0, i32 116), align 8, !tbaa !214
  call void @llvm.lifetime.start.p0(i64 64, ptr %3) #15
  call void @llvm.lifetime.start.p0(i64 8, ptr %4) #15
  %12 = call ptr @rdbPopulateSaveInfo(ptr noundef %3)
  store ptr %12, ptr %4, align 8, !tbaa !179
  %13 = load ptr, ptr getelementptr inbounds nuw (%struct.redisServer, ptr @server, i32 0, i32 234), align 8, !tbaa !333
  %14 = load ptr, ptr %4, align 8, !tbaa !179
  %15 = call i32 @rdbSave(i32 noundef 0, ptr noundef %13, ptr noundef %14, i32 noundef 0)
  %16 = icmp eq i32 %15, 0
  br i1 %16, label %17, label %20

17:                                               ; preds = %9
  %18 = load ptr, ptr %2, align 8, !tbaa !323
  %19 = load ptr, ptr @shared, align 8, !tbaa !334
  call void @addReply(ptr noundef %18, ptr noundef %19)
  br label %23

20:                                               ; preds = %9
  %21 = load ptr, ptr %2, align 8, !tbaa !323
  %22 = load ptr, ptr getelementptr inbounds nuw (%struct.sharedObjectsStruct, ptr @shared, i32 0, i32 1), align 8, !tbaa !335
  call void @addReplyErrorObject(ptr noundef %21, ptr noundef %22)
  br label %23

23:                                               ; preds = %20, %17
  call void @llvm.lifetime.end.p0(i64 8, ptr %4) #15
  call void @llvm.lifetime.end.p0(i64 64, ptr %3) #15
  br label %24

24:                                               ; preds = %23, %7
  ret void
}