; Function Attrs: nounwind uwtable
define dso_local void @saveCommand(ptr noundef %0) local_unnamed_addr #0 {
  %2 = alloca %struct.rdbSaveInfo, align 8
  %3 = load i32, ptr getelementptr inbounds nuw (i8, ptr @server, i64 308), align 4, !tbaa !271
  %4 = icmp eq i32 %3, 1
  br i1 %4, label %5, label %6

5:                                                ; preds = %1
  tail call void @addReplyError(ptr noundef %0, ptr noundef nonnull @.str.157) #23
  br label %39

6:                                                ; preds = %1
  %7 = load i64, ptr getelementptr inbounds nuw (i8, ptr @server, i64 2664), align 8, !tbaa !173
  %8 = add nsw i64 %7, 1
  store i64 %8, ptr getelementptr inbounds nuw (i8, ptr @server, i64 2664), align 8, !tbaa !173
  call void @llvm.lifetime.start.p0(i64 64, ptr nonnull %2) #23
  call void @llvm.memcpy.p0.p0.i64(ptr noundef nonnull align 8 dereferenceable(64) %2, ptr noundef nonnull align 8 dereferenceable(64) @__const.rdbPopulateSaveInfo.rsi_init, i64 64, i1 false), !tbaa.struct !272
  %9 = load ptr, ptr getelementptr inbounds nuw (i8, ptr @server, i64 7264), align 8, !tbaa !231
  %10 = icmp eq ptr %9, null
  %11 = load ptr, ptr getelementptr inbounds nuw (i8, ptr @server, i64 7104), align 8
  %12 = icmp ne ptr %11, null
  %or.cond.i = select i1 %10, i1 %12, i1 false
  br i1 %or.cond.i, label %13, label %17

13:                                               ; preds = %6
  %14 = load i32, ptr getelementptr inbounds nuw (i8, ptr @server, i64 7096), align 8, !tbaa !273
  %15 = icmp eq i32 %14, -1
  %16 = select i1 %15, i32 0, i32 %14
  br label %.sink.split.i

17:                                               ; preds = %6
  %18 = load ptr, ptr getelementptr inbounds nuw (i8, ptr @server, i64 7280), align 8, !tbaa !274
  %.not.i = icmp eq ptr %18, null
  br i1 %.not.i, label %24, label %19

19:                                               ; preds = %17
  %20 = getelementptr inbounds nuw i8, ptr %18, i64 32
  %21 = load ptr, ptr %20, align 8, !tbaa !275
  %22 = getelementptr inbounds nuw i8, ptr %21, i64 56
  %23 = load i32, ptr %22, align 8, !tbaa !240
  br label %.sink.split.i

24:                                               ; preds = %17
  %25 = load ptr, ptr getelementptr inbounds nuw (i8, ptr @server, i64 7288), align 8, !tbaa !276
  %.not11.i = icmp eq ptr %25, null
  br i1 %.not11.i, label %rdbPopulateSaveInfo.exit, label %26

26:                                               ; preds = %24
  %27 = getelementptr inbounds nuw i8, ptr %25, i64 32
  %28 = load ptr, ptr %27, align 8, !tbaa !275
  %29 = getelementptr inbounds nuw i8, ptr %28, i64 56
  %30 = load i32, ptr %29, align 8, !tbaa !240
  br label %.sink.split.i

.sink.split.i:                                    ; preds = %26, %19, %13
  %.sink.i = phi i32 [ %30, %26 ], [ %23, %19 ], [ %16, %13 ]
  store i32 %.sink.i, ptr %2, align 8, !tbaa !149
  br label %rdbPopulateSaveInfo.exit

rdbPopulateSaveInfo.exit:                         ; preds = %24, %.sink.split.i
  %.0.i = phi ptr [ null, %24 ], [ %2, %.sink.split.i ]
  %31 = load ptr, ptr getelementptr inbounds nuw (i8, ptr @server, i64 6776), align 8, !tbaa !277
  %32 = call i32 @rdbSave(i32 noundef 0, ptr noundef %31, ptr noundef %.0.i, i32 noundef 0)
  %33 = icmp eq i32 %32, 0
  br i1 %33, label %34, label %36

34:                                               ; preds = %rdbPopulateSaveInfo.exit
  %35 = load ptr, ptr @shared, align 8, !tbaa !278
  call void @addReply(ptr noundef %0, ptr noundef %35) #23
  br label %38

36:                                               ; preds = %rdbPopulateSaveInfo.exit
  %37 = load ptr, ptr getelementptr inbounds nuw (i8, ptr @shared, i64 8), align 8, !tbaa !280
  call void @addReplyErrorObject(ptr noundef %0, ptr noundef %37) #23
  br label %38

38:                                               ; preds = %36, %34
  call void @llvm.lifetime.end.p0(i64 64, ptr nonnull %2) #23
  br label %39

39:                                               ; preds = %38, %5
  ret void
}